(dp1
S'relationships_by_citationcount'
p2
S'{"Kowalski, M.": {"Hubrig, S.": [], "Ilbert, O.": [], "Astier, P.": [], "Carretta, E.": [], "Wood-Vasey, W. M.": [69.0], "Vanzella, E.": [], "Gillessen, S.": [], "Daddi, E.": [], "FArster Schreiber, N. M.": []}, "Ilbert, O.": {"Kowalski, M.": [], "Astier, P.": [], "Carretta, E.": [], "Wood-Vasey, W. M.": [], "Vanzella, E.": [], "Gillessen, S.": [], "Hubrig, S.": [], "Daddi, E.": [], "FArster Schreiber, N. M.": []}, "Astier, P.": {"Kowalski, M.": [], "Ilbert, O.": [], "Carretta, E.": [], "Wood-Vasey, W. M.": [], "Vanzella, E.": [], "Gillessen, S.": [], "Hubrig, S.": [], "Daddi, E.": [], "FArster Schreiber, N. M.": []}, "Carretta, E.": {"Kowalski, M.": [], "Ilbert, O.": [], "Astier, P.": [], "Wood-Vasey, W. M.": [], "Vanzella, E.": [], "Gillessen, S.": [], "Hubrig, S.": [], "Daddi, E.": [], "FArster Schreiber, N. M.": []}, "Wood-Vasey, W. M.": {"Kowalski, M.": [], "Ilbert, O.": [], "Astier, P.": [], "Carretta, E.": [], "Vanzella, E.": [], "Gillessen, S.": [], "Hubrig, S.": [], "Daddi, E.": [], "FArster Schreiber, N. M.": []}, "Vanzella, E.": {"Kowalski, M.": [], "Ilbert, O.": [], "Astier, P.": [], "Carretta, E.": [], "Wood-Vasey, W. M.": [], "Gillessen, S.": [], "Hubrig, S.": [], "Daddi, E.": [], "FArster Schreiber, N. M.": []}, "Gillessen, S.": {"Kowalski, M.": [], "Ilbert, O.": [], "Astier, P.": [], "Carretta, E.": [], "Wood-Vasey, W. M.": [], "Vanzella, E.": [], "Hubrig, S.": [], "Daddi, E.": [], "FArster Schreiber, N. M.": []}, "Hubrig, S.": {"Kowalski, M.": [], "Ilbert, O.": [], "Astier, P.": [], "Carretta, E.": [], "Wood-Vasey, W. M.": [], "Vanzella, E.": [], "Gillessen, S.": [], "Daddi, E.": [], "FArster Schreiber, N. M.": []}, "Daddi, E.": {"Kowalski, M.": [], "Ilbert, O.": [], "Astier, P.": [], "Carretta, E.": [], "Wood-Vasey, W. M.": [], "Vanzella, E.": [], "Gillessen, S.": [], "Hubrig, S.": [], "FArster Schreiber, N. M.": []}, "FArster Schreiber, N. M.": {"Kowalski, M.": [], "Ilbert, O.": [], "Astier, P.": [], "Carretta, E.": [], "Wood-Vasey, W. M.": [], "Vanzella, E.": [], "Gillessen, S.": [], "Hubrig, S.": [], "Daddi, E.": []}}'
p3
sS'authordata'
p4
S'{"titles": {"Clowe, Douglas": [{"text": "z", "size": 4}, {"text": "cluster", "size": 4}, {"text": "star", "size": 3}, {"text": "formation", "size": 3}, {"text": "galaxies", "size": 2}, {"text": "function", "size": 2}, {"text": "relation", "size": 2}, {"text": "luminosity", "size": 2}, {"text": "galaxy", "size": 2}, {"text": "=", "size": 2}, {"text": "08", "size": 2}, {"text": "bullet", "size": 2}, {"text": "clusters", "size": 2}, {"text": "post-starburst", "size": 1}, {"text": "starburst", "size": 1}, {"text": "colour-magnitude", "size": 1}, {"text": "empirical", "size": 1}, {"text": "confirmation", "size": 1}, {"text": "build-up", "size": 1}, {"text": "assembly", "size": 1}], "FArster Schreiber, N. M.": [], "Kowalski, M.": [{"text": "ia", "size": 8}, {"text": "type", "size": 8}, {"text": "supernova", "size": 8}, {"text": "telescope", "size": 5}, {"text": "space", "size": 5}, {"text": "hubble", "size": 5}, {"text": "survey", "size": 4}, {"text": "spectra", "size": 3}, {"text": "supernovae", "size": 3}, {"text": "rate", "size": 3}, {"text": "cluster", "size": 2}, {"text": "galaxy", "size": 2}, {"text": "comparison", "size": 2}, {"text": "unusual", "size": 2}, {"text": "&#60;", "size": 2}, {"text": "clusters", "size": 2}, {"text": "high-redshift", "size": 2}, {"text": "1999ac", "size": 1}, {"text": "high", "size": 1}, {"text": "analysis", "size": 1}], "Reiners, A.": [{"text": "dwarfs", "size": 6}, {"text": "rotation", "size": 6}, {"text": "dwarf", "size": 5}, {"text": "brown", "size": 5}, {"text": "activity", "size": 4}, {"text": "m", "size": 4}, {"text": "radial", "size": 4}, {"text": "star", "size": 4}, {"text": "flare", "size": 4}, {"text": "magnetic", "size": 3}, {"text": "velocity", "size": 3}, {"text": "stars", "size": 3}, {"text": "strong", "size": 3}, {"text": "rotating", "size": 3}, {"text": "very", "size": 3}, {"text": "cn", "size": 3}, {"text": "leonis", "size": 3}, {"text": "magnetism", "size": 3}, {"text": "system", "size": 3}, {"text": "proxima", "size": 2}], "Beaulieu, J.-P.": [{"text": "microlensing", "size": 4}, {"text": "star", "size": 3}, {"text": "measurements", "size": 2}, {"text": "mass", "size": 2}, {"text": "cool", "size": 2}, {"text": "ogle", "size": 2}, {"text": "earth", "size": 2}, {"text": "planet", "size": 2}, {"text": "discovery", "size": 2}, {"text": "giant", "size": 2}, {"text": "cold", "size": 1}, {"text": "spiral", "size": 1}, {"text": "through", "size": 1}, {"text": "gravitational", "size": 1}, {"text": "one", "size": 1}, {"text": "seven", "size": 1}, {"text": "spatially", "size": 1}, {"text": "season", "size": 1}, {"text": "bound", "size": 1}, {"text": "planets", "size": 1}], "Kervella, P.": [{"text": "imaging", "size": 10}, {"text": "ii", "size": 7}, {"text": "observations", "size": 7}, {"text": "environment", "size": 7}, {"text": "cepheids", "size": 6}, {"text": "\\u00ee\\u00b4", "size": 6}, {"text": "infrared", "size": 6}, {"text": "i", "size": 6}, {"text": "eclipsing", "size": 5}, {"text": "interferometric", "size": 5}, {"text": "achernar", "size": 5}, {"text": "star", "size": 5}, {"text": "velorum", "size": 5}, {"text": "stellar", "size": 5}, {"text": "system", "size": 5}, {"text": "distance", "size": 4}, {"text": "circumstellar", "size": 4}, {"text": "vlt/visir", "size": 4}, {"text": "fast", "size": 4}, {"text": "vlt/naco", "size": 4}], "Geier, S.": [{"text": "subdwarf", "size": 16}, {"text": "hot", "size": 10}, {"text": "b", "size": 9}, {"text": "stars", "size": 9}, {"text": "binary", "size": 8}, {"text": "binaries", "size": 5}, {"text": "-", "size": 5}, {"text": "unseen", "size": 4}, {"text": "star", "size": 4}, {"text": "companions", "size": 4}, {"text": "muchfuss", "size": 4}, {"text": "massive", "size": 4}, {"text": "sdss", "size": 3}, {"text": "close-up", "size": 3}, {"text": "eclipsing", "size": 3}, {"text": "view", "size": 3}, {"text": "close", "size": 3}, {"text": "discovery", "size": 3}, {"text": "companion", "size": 3}, {"text": "discovered", "size": 3}], "Hubrig, S.": [{"text": "magnetic", "size": 43}, {"text": "stars", "size": 34}, {"text": "star", "size": 24}, {"text": "field", "size": 20}, {"text": "hd", "size": 16}, {"text": "herbig", "size": 13}, {"text": "fields", "size": 12}, {"text": "ap", "size": 8}, {"text": "ii", "size": 7}, {"text": "ae", "size": 7}, {"text": "new", "size": 7}, {"text": "emission", "size": 6}, {"text": "measurements", "size": 5}, {"text": "detection", "size": 5}, {"text": "b-type", "size": 5}, {"text": "chemical", "size": 5}, {"text": "cp", "size": 5}, {"text": "hgmn", "size": 5}, {"text": "discovery", "size": 5}, {"text": "first", "size": 4}], "Astier, P.": [{"text": "supernova", "size": 21}, {"text": "ia", "size": 18}, {"text": "type", "size": 17}, {"text": "legacy", "size": 14}, {"text": "supernovae", "size": 14}, {"text": "survey", "size": 12}, {"text": "photometric", "size": 4}, {"text": "data", "size": 4}, {"text": "galaxies", "size": 3}, {"text": "selection", "size": 3}, {"text": "constraints", "size": 3}, {"text": "host", "size": 3}, {"text": "indicators", "size": 2}, {"text": "high", "size": 2}, {"text": "analysis", "size": 2}, {"text": "z", "size": 2}, {"text": "spectra", "size": 2}, {"text": "distance", "size": 2}, {"text": "set", "size": 2}, {"text": "high-redshift", "size": 2}], "Kochukhov, O.": [{"text": "star", "size": 22}, {"text": "magnetic", "size": 21}, {"text": "hd", "size": 16}, {"text": "ap", "size": 15}, {"text": "stars", "size": 13}, {"text": "field", "size": 8}, {"text": "atmosphere", "size": 8}, {"text": "rapidly", "size": 7}, {"text": "model", "size": 7}, {"text": "chemical", "size": 6}, {"text": "oscillating", "size": 6}, {"text": "peculiar", "size": 5}, {"text": "chemically", "size": 5}, {"text": "cool", "size": 5}, {"text": "analysis", "size": 4}, {"text": "stratification", "size": 4}, {"text": "roap", "size": 4}, {"text": "line", "size": 4}, {"text": "discovery", "size": 4}, {"text": "first", "size": 3}], "Mignani, R. P.": [{"text": "observations", "size": 23}, {"text": "optical", "size": 14}, {"text": "pulsar", "size": 11}, {"text": "x-ray", "size": 9}, {"text": "vlt", "size": 9}, {"text": "neutron", "size": 8}, {"text": "isolated", "size": 8}, {"text": "psr", "size": 8}, {"text": "star", "size": 5}, {"text": "counterpart", "size": 4}, {"text": "deep", "size": 4}, {"text": "radio", "size": 4}, {"text": "infrared", "size": 4}, {"text": "rx", "size": 3}, {"text": "stars", "size": 3}, {"text": "source", "size": 3}, {"text": "remnant", "size": 3}, {"text": "candidate", "size": 3}, {"text": "vela", "size": 3}, {"text": "fermi", "size": 3}], "Gillessen, S.": [{"text": "galactic", "size": 13}, {"text": "a*", "size": 8}, {"text": "center", "size": 8}, {"text": "star", "size": 7}, {"text": "sgr", "size": 6}, {"text": "observations", "size": 5}, {"text": "flares", "size": 5}, {"text": "x-ray", "size": 4}, {"text": "z", "size": 4}, {"text": "2", "size": 4}, {"text": "centre", "size": 4}, {"text": "sagittarius", "size": 4}, {"text": "stars", "size": 4}, {"text": "stellar", "size": 4}, {"text": "flare", "size": 4}, {"text": "central", "size": 4}, {"text": "near-infrared", "size": 4}, {"text": "large", "size": 3}, {"text": "young", "size": 3}, {"text": "sinfoni", "size": 3}], "Sana, H.": [{"text": "binary", "size": 17}, {"text": "massive", "size": 16}, {"text": "vlt-flames", "size": 10}, {"text": "tarantula", "size": 10}, {"text": "stars", "size": 9}, {"text": "hd", "size": 9}, {"text": "star", "size": 9}, {"text": "survey", "size": 9}, {"text": "young", "size": 8}, {"text": "cluster", "size": 6}, {"text": "o-type", "size": 6}, {"text": "optical", "size": 6}, {"text": "-", "size": 6}, {"text": "open", "size": 6}, {"text": "spectroscopic", "size": 5}, {"text": "ii", "size": 4}, {"text": "early-type", "size": 4}, {"text": "spectroscopy", "size": 4}, {"text": "i", "size": 4}, {"text": "system", "size": 4}], "Paumard, T.": [{"text": "stars", "size": 5}, {"text": "galactic", "size": 5}, {"text": "central", "size": 4}, {"text": "young", "size": 3}, {"text": "sagittarius", "size": 3}, {"text": "parsec", "size": 3}, {"text": "a*", "size": 3}, {"text": "disks", "size": 3}, {"text": "center", "size": 3}, {"text": "flare", "size": 3}, {"text": "massive", "size": 3}, {"text": "flares", "size": 3}, {"text": "evidence", "size": 3}, {"text": "large", "size": 2}, {"text": "sgr", "size": 2}, {"text": "x-ray", "size": 2}, {"text": "mass", "size": 2}, {"text": "function", "size": 2}, {"text": "top-heavy", "size": 2}, {"text": "simultaneous", "size": 2}], "Daddi, E.": [{"text": "z", "size": 25}, {"text": "galaxies", "size": 23}, {"text": "~", "size": 14}, {"text": "2", "size": 13}, {"text": "spectroscopy", "size": 11}, {"text": "survey", "size": 10}, {"text": "galaxy", "size": 9}, {"text": "field", "size": 8}, {"text": "gmass", "size": 7}, {"text": "observations", "size": 7}, {"text": "i", "size": 7}, {"text": "ultradeep", "size": 7}, {"text": "evolution", "size": 6}, {"text": "star", "size": 6}, {"text": "formation", "size": 6}, {"text": "deep", "size": 5}, {"text": "star-forming", "size": 5}, {"text": "properties", "size": 5}, {"text": "=", "size": 4}, {"text": "redshift", "size": 4}], "Eisenhauer, F.": [{"text": "galactic", "size": 13}, {"text": "z", "size": 9}, {"text": "galaxy", "size": 9}, {"text": "star", "size": 9}, {"text": "2", "size": 7}, {"text": "center", "size": 7}, {"text": "spectroscopy", "size": 7}, {"text": "formation", "size": 6}, {"text": "massive", "size": 6}, {"text": "~", "size": 6}, {"text": "evidence", "size": 6}, {"text": "mass", "size": 5}, {"text": "sinfoni", "size": 5}, {"text": "field", "size": 5}, {"text": "stars", "size": 5}, {"text": "a*", "size": 5}, {"text": "star-forming", "size": 5}, {"text": "stellar", "size": 5}, {"text": "properties", "size": 5}, {"text": "integral", "size": 5}], "Ilbert, O.": [{"text": "z", "size": 44}, {"text": "survey", "size": 41}, {"text": "deep", "size": 40}, {"text": "galaxies", "size": 28}, {"text": "vimos", "size": 26}, {"text": "evolution", "size": 24}, {"text": "galaxy", "size": 23}, {"text": "vlt", "size": 23}, {"text": "field", "size": 19}, {"text": "cosmos", "size": 18}, {"text": "redshift", "size": 15}, {"text": "1", "size": 14}, {"text": "&#60;", "size": 14}, {"text": "~", "size": 13}, {"text": "mass", "size": 11}, {"text": "luminosity", "size": 11}, {"text": "survey:", "size": 11}, {"text": "=", "size": 11}, {"text": "properties", "size": 11}, {"text": "vimos-vlt", "size": 10}], "Carretta, E.": [{"text": "ngc", "size": 30}, {"text": "globular", "size": 22}, {"text": "clusters", "size": 17}, {"text": "cluster", "size": 16}, {"text": "anticorrelation", "size": 15}, {"text": "na-o", "size": 15}, {"text": "stars", "size": 14}, {"text": "abundances", "size": 11}, {"text": "chemical", "size": 9}, {"text": "horizontal", "size": 8}, {"text": "stellar", "size": 8}, {"text": "open", "size": 7}, {"text": "hb", "size": 6}, {"text": "multiple", "size": 6}, {"text": "populations", "size": 6}, {"text": "47", "size": 6}, {"text": "spectra", "size": 5}, {"text": "1851", "size": 5}, {"text": "old", "size": 5}, {"text": "branches", "size": 5}], "Wood-Vasey, W. M.": [{"text": "ia", "size": 6}, {"text": "type", "size": 6}, {"text": "supernova", "size": 6}, {"text": "supernovae", "size": 5}, {"text": "spectra", "size": 4}, {"text": "essence", "size": 3}, {"text": "high-redshift", "size": 3}, {"text": "high", "size": 2}, {"text": "constraints", "size": 2}, {"text": "observations", "size": 2}, {"text": "comparison", "size": 2}, {"text": "&#60;", "size": 2}, {"text": "survey", "size": 2}, {"text": "cosmological", "size": 2}, {"text": "spectroscopic", "size": 2}, {"text": "first", "size": 2}, {"text": "results", "size": 1}, {"text": "z", "size": 1}, {"text": "analysis", "size": 1}, {"text": "redshifts:", "size": 1}], "Moni Bidin, C.": [{"text": "stars", "size": 7}, {"text": "clusters", "size": 7}, {"text": "galactic", "size": 7}, {"text": "vvv", "size": 6}, {"text": "cluster", "size": 6}, {"text": "ngc", "size": 6}, {"text": "globular", "size": 6}, {"text": "lack", "size": 5}, {"text": "horizontal", "size": 5}, {"text": "branch", "size": 5}, {"text": "disk", "size": 5}, {"text": "thick", "size": 4}, {"text": "binaries", "size": 4}, {"text": "star", "size": 4}, {"text": "survey", "size": 4}, {"text": "open", "size": 4}, {"text": "hot", "size": 3}, {"text": "ii", "size": 3}, {"text": "close", "size": 3}, {"text": "among", "size": 3}], "Vanzella, E.": [{"text": "galaxies", "size": 14}, {"text": "z", "size": 13}, {"text": "deep", "size": 10}, {"text": "goods-south", "size": 8}, {"text": "field", "size": 7}, {"text": "survey", "size": 7}, {"text": "observatories", "size": 6}, {"text": "evolution", "size": 6}, {"text": "great", "size": 6}, {"text": "lyman", "size": 6}, {"text": "origins", "size": 6}, {"text": "7", "size": 5}, {"text": "galaxy", "size": 5}, {"text": "spectroscopy", "size": 5}, {"text": "mass", "size": 4}, {"text": "function", "size": 4}, {"text": "luminosity", "size": 4}, {"text": "field:", "size": 4}, {"text": "break", "size": 4}, {"text": "redshift", "size": 4}], "Cowley, C. R.": [{"text": "hd", "size": 11}, {"text": "star", "size": 8}, {"text": "herbig", "size": 8}, {"text": "magnetic", "size": 7}, {"text": "stars", "size": 6}, {"text": "ae", "size": 6}, {"text": "cp", "size": 5}, {"text": "101412", "size": 3}, {"text": "65949:", "size": 2}, {"text": "spectra", "size": 2}, {"text": "abundances", "size": 2}, {"text": "chemical", "size": 2}, {"text": "anomaly", "size": 2}, {"text": "centauri", "size": 2}, {"text": "calcium", "size": 2}, {"text": "absorption", "size": 2}, {"text": "iii", "size": 2}, {"text": "15144:", "size": 1}, {"text": "mean", "size": 1}, {"text": "abundance", "size": 1}], "Lilly, S. J.": [{"text": "z", "size": 20}, {"text": "galaxies", "size": 19}, {"text": "zcosmos", "size": 18}, {"text": "&#60;", "size": 14}, {"text": "field", "size": 11}, {"text": "cosmos", "size": 10}, {"text": "galaxy", "size": 9}, {"text": "1", "size": 9}, {"text": "redshift", "size": 9}, {"text": "evolution", "size": 8}, {"text": "survey", "size": 8}, {"text": "~", "size": 8}, {"text": "mass", "size": 6}, {"text": "sample", "size": 6}, {"text": "stellar", "size": 6}, {"text": "10k", "size": 6}, {"text": "function", "size": 5}, {"text": "ii", "size": 5}, {"text": "properties", "size": 5}, {"text": "optical", "size": 5}], "Gehrels, N.": [{"text": "grb", "size": 15}, {"text": "spectroscopy", "size": 5}, {"text": "afterglow", "size": 4}, {"text": "optical", "size": 4}, {"text": "redshift", "size": 4}, {"text": "swift", "size": 3}, {"text": "x-ray", "size": 3}, {"text": "z", "size": 3}, {"text": "telescope", "size": 3}, {"text": "galaxy", "size": 3}, {"text": "\\u00ee\\u00b3-ray", "size": 3}, {"text": "observations", "size": 3}, {"text": "=", "size": 3}, {"text": "integral", "size": 3}, {"text": "nature", "size": 3}, {"text": "identification", "size": 3}, {"text": "burst", "size": 3}, {"text": "large", "size": 2}, {"text": "high", "size": 2}, {"text": "galactic", "size": 2}]}, "abstracts": {"Clowe, Douglas": [{"text": "galaxies", "size": 40}, {"text": "cluster", "size": 37}, {"text": "clusters", "size": 32}, {"text": "z", "size": 22}, {"text": "=", "size": 13}, {"text": "star-forming", "size": 12}, {"text": "&#60;", "size": 12}, {"text": "mass", "size": 10}, {"text": "sfr", "size": 10}, {"text": "red", "size": 10}, {"text": "distant", "size": 9}, {"text": "eso", "size": 9}, {"text": "galaxy", "size": 9}, {"text": "groups", "size": 9}, {"text": "observations", "size": 9}, {"text": "fraction", "size": 9}, {"text": "local", "size": 9}, {"text": "observatory", "size": 9}, {"text": "based", "size": 8}, {"text": "\\u00e2\\u00b1", "size": 8}], "FArster Schreiber, N. M.": [], "Kowalski, M.": [{"text": "ia", "size": 48}, {"text": "sne", "size": 32}, {"text": "sn", "size": 30}, {"text": "observations", "size": 25}, {"text": "telescope", "size": 24}, {"text": "data", "size": 21}, {"text": "obtained", "size": 19}, {"text": "based", "size": 18}, {"text": "space", "size": 18}, {"text": "rate", "size": 16}, {"text": "supernova", "size": 16}, {"text": "part", "size": 15}, {"text": "observatory", "size": 15}, {"text": "z", "size": 14}, {"text": "spectra", "size": 13}, {"text": "redshift", "size": 13}, {"text": "w", "size": 12}, {"text": "survey", "size": 12}, {"text": "type", "size": 11}, {"text": "cluster", "size": 11}], "Reiners, A.": [{"text": "stars", "size": 77}, {"text": "rotation", "size": 55}, {"text": "magnetic", "size": 53}, {"text": "lines", "size": 43}, {"text": "dwarfs", "size": 37}, {"text": "line", "size": 37}, {"text": "spectral", "size": 37}, {"text": "field", "size": 30}, {"text": "very", "size": 30}, {"text": "observations", "size": 29}, {"text": "spectra", "size": 28}, {"text": "flare", "size": 27}, {"text": "velocity", "size": 26}, {"text": "activity", "size": 25}, {"text": "temperature", "size": 24}, {"text": "measurements", "size": 23}, {"text": "feh", "size": 23}, {"text": "can", "size": 22}, {"text": "star", "size": 22}, {"text": "find", "size": 22}], "Beaulieu, J.-P.": [{"text": "stars", "size": 21}, {"text": "microlensing", "size": 20}, {"text": "planets", "size": 15}, {"text": "mass", "size": 13}, {"text": "source", "size": 13}, {"text": "=", "size": 11}, {"text": "star", "size": 11}, {"text": "galactic", "size": 11}, {"text": "been", "size": 9}, {"text": "event", "size": 9}, {"text": "analysis", "size": 8}, {"text": "distance", "size": 8}, {"text": "model", "size": 8}, {"text": "light", "size": 8}, {"text": "planet", "size": 8}, {"text": "limb-darkening", "size": 8}, {"text": "curve", "size": 8}, {"text": "lens", "size": 7}, {"text": "bulge", "size": 7}, {"text": "find", "size": 7}], "Kervella, P.": [{"text": "observations", "size": 68}, {"text": "star", "size": 55}, {"text": "stars", "size": 49}, {"text": "\\u00e2\\u00b1", "size": 46}, {"text": "=", "size": 41}, {"text": "circumstellar", "size": 34}, {"text": "model", "size": 34}, {"text": "data", "size": 33}, {"text": "based", "size": 30}, {"text": "mass", "size": 30}, {"text": "obtained", "size": 30}, {"text": "eso", "size": 30}, {"text": "cepheids", "size": 30}, {"text": "results:", "size": 29}, {"text": "aims:", "size": 29}, {"text": "methods:", "size": 29}, {"text": "envelope", "size": 27}, {"text": "angular", "size": 27}, {"text": "stellar", "size": 26}, {"text": "around", "size": 25}], "Geier, S.": [{"text": "stars", "size": 79}, {"text": "mass", "size": 50}, {"text": "sdb", "size": 44}, {"text": "star", "size": 44}, {"text": "observatory", "size": 38}, {"text": "based", "size": 36}, {"text": "companion", "size": 33}, {"text": "hot", "size": 31}, {"text": "observations", "size": 31}, {"text": "binary", "size": 31}, {"text": "companions", "size": 26}, {"text": "de", "size": 25}, {"text": "subdwarf", "size": 24}, {"text": "been", "size": 24}, {"text": "sdbs", "size": 23}, {"text": "systems", "size": 23}, {"text": "envelope", "size": 21}, {"text": "binaries", "size": 20}, {"text": "white", "size": 20}, {"text": "close", "size": 19}], "Hubrig, S.": [{"text": "stars", "size": 291}, {"text": "magnetic", "size": 261}, {"text": "field", "size": 169}, {"text": "star", "size": 127}, {"text": "observations", "size": 114}, {"text": "lines", "size": 105}, {"text": "hd", "size": 97}, {"text": "obtained", "size": 72}, {"text": "spectra", "size": 62}, {"text": "fields", "size": 62}, {"text": "based", "size": 59}, {"text": "ii", "size": 55}, {"text": "eso", "size": 53}, {"text": "spectral", "size": 52}, {"text": "observatory", "size": 51}, {"text": "southern", "size": 47}, {"text": "european", "size": 47}, {"text": "detected", "size": 46}, {"text": "longitudinal", "size": 46}, {"text": "observed", "size": 44}], "Astier, P.": [{"text": "ia", "size": 118}, {"text": "sne", "size": 69}, {"text": "sn", "size": 54}, {"text": "supernova", "size": 50}, {"text": "based", "size": 46}, {"text": "data", "size": 46}, {"text": "snls", "size": 37}, {"text": "national", "size": 37}, {"text": "telescope", "size": 36}, {"text": "redshift", "size": 36}, {"text": "type", "size": 35}, {"text": "supernovae", "size": 35}, {"text": "survey", "size": 34}, {"text": "obtained", "size": 31}, {"text": "observations", "size": 31}, {"text": "=", "size": 31}, {"text": "z", "size": 29}, {"text": "host", "size": 29}, {"text": "legacy", "size": 29}, {"text": "part", "size": 26}], "Kochukhov, O.": [{"text": "magnetic", "size": 168}, {"text": "stars", "size": 161}, {"text": "field", "size": 105}, {"text": "hd", "size": 91}, {"text": "lines", "size": 68}, {"text": "observations", "size": 61}, {"text": "star", "size": 60}, {"text": "chemical", "size": 55}, {"text": "model", "size": 55}, {"text": "elements", "size": 52}, {"text": "stellar", "size": 45}, {"text": "roap", "size": 44}, {"text": "ap", "size": 42}, {"text": "obtained", "size": 41}, {"text": "line", "size": 41}, {"text": "based", "size": 40}, {"text": "atmosphere", "size": 39}, {"text": "spectra", "size": 38}, {"text": "abundance", "size": 38}, {"text": "spectral", "size": 36}], "Mignani, R. P.": [{"text": "observations", "size": 114}, {"text": "optical", "size": 101}, {"text": "x-ray", "size": 78}, {"text": "neutron", "size": 55}, {"text": "pulsar", "size": 53}, {"text": "star", "size": 51}, {"text": "psr", "size": 48}, {"text": "telescope", "size": 43}, {"text": "emission", "size": 39}, {"text": "counterpart", "size": 38}, {"text": "radio", "size": 38}, {"text": "pulsars", "size": 36}, {"text": "vlt", "size": 36}, {"text": "based", "size": 35}, {"text": "ir", "size": 35}, {"text": "=", "size": 34}, {"text": "very", "size": 34}, {"text": "source", "size": 33}, {"text": "spectrum", "size": 30}, {"text": "stars", "size": 29}], "Gillessen, S.": [{"text": "stars", "size": 71}, {"text": "emission", "size": 42}, {"text": "star", "size": 39}, {"text": "a*", "size": 38}, {"text": "sgr", "size": 37}, {"text": "observations", "size": 37}, {"text": "flare", "size": 33}, {"text": "mass", "size": 30}, {"text": "x-ray", "size": 29}, {"text": "stellar", "size": 27}, {"text": "observed", "size": 26}, {"text": "very", "size": 25}, {"text": "central", "size": 25}, {"text": "two", "size": 25}, {"text": "galaxies", "size": 24}, {"text": "galactic", "size": 24}, {"text": "\\u00ee\\u00bcm", "size": 23}, {"text": "data", "size": 22}, {"text": "formation", "size": 22}, {"text": "black", "size": 22}], "Sana, H.": [{"text": "stars", "size": 98}, {"text": "binary", "size": 74}, {"text": "star", "size": 56}, {"text": "system", "size": 56}, {"text": "observations", "size": 44}, {"text": "massive", "size": 44}, {"text": "hd", "size": 43}, {"text": "cluster", "size": 40}, {"text": "spectroscopic", "size": 37}, {"text": "x-ray", "size": 35}, {"text": "spectral", "size": 35}, {"text": "based", "size": 34}, {"text": "large", "size": 31}, {"text": "velocity", "size": 31}, {"text": "orbital", "size": 31}, {"text": "o-type", "size": 31}, {"text": "components", "size": 29}, {"text": "=", "size": 28}, {"text": "emission", "size": 28}, {"text": "optical", "size": 27}], "Paumard, T.": [{"text": "stars", "size": 55}, {"text": "observations", "size": 21}, {"text": "central", "size": 20}, {"text": "star", "size": 18}, {"text": "stellar", "size": 18}, {"text": "a*", "size": 16}, {"text": "observed", "size": 16}, {"text": "\\u00ee\\u00bcm", "size": 16}, {"text": "sgr", "size": 14}, {"text": "x-ray", "size": 13}, {"text": "mass", "size": 13}, {"text": "very", "size": 13}, {"text": "flare", "size": 13}, {"text": "massive", "size": 13}, {"text": "galactic", "size": 13}, {"text": "system", "size": 13}, {"text": "based", "size": 12}, {"text": "disks", "size": 12}, {"text": "emission", "size": 12}, {"text": "two", "size": 12}], "Daddi, E.": [{"text": "galaxies", "size": 231}, {"text": "z", "size": 98}, {"text": "redshift", "size": 90}, {"text": "galaxy", "size": 83}, {"text": "formation", "size": 75}, {"text": "mass", "size": 72}, {"text": "star", "size": 64}, {"text": "stellar", "size": 61}, {"text": "sample", "size": 58}, {"text": "observations", "size": 55}, {"text": "&#60;", "size": 54}, {"text": "survey", "size": 49}, {"text": "telescope", "size": 48}, {"text": "field", "size": 46}, {"text": "based", "size": 45}, {"text": "massive", "size": 45}, {"text": "evolution", "size": 41}, {"text": "agn", "size": 40}, {"text": "spectroscopic", "size": 40}, {"text": "observatory", "size": 39}], "Eisenhauer, F.": [{"text": "stars", "size": 89}, {"text": "star", "size": 57}, {"text": "mass", "size": 56}, {"text": "observations", "size": 54}, {"text": "stellar", "size": 45}, {"text": "galaxies", "size": 44}, {"text": "gas", "size": 43}, {"text": "very", "size": 41}, {"text": "formation", "size": 41}, {"text": "large", "size": 38}, {"text": "central", "size": 36}, {"text": "observed", "size": 35}, {"text": "emission", "size": 34}, {"text": "galaxy", "size": 33}, {"text": "massive", "size": 33}, {"text": "based", "size": 32}, {"text": "a*", "size": 32}, {"text": "two", "size": 32}, {"text": "\\u00ee\\u00bcm", "size": 31}, {"text": "cluster", "size": 30}], "Ilbert, O.": [{"text": "galaxies", "size": 446}, {"text": "z", "size": 244}, {"text": "redshift", "size": 242}, {"text": "galaxy", "size": 183}, {"text": "data", "size": 154}, {"text": "survey", "size": 153}, {"text": "mass", "size": 146}, {"text": "sample", "size": 144}, {"text": "evolution", "size": 135}, {"text": "telescope", "size": 131}, {"text": "&#60;", "size": 129}, {"text": "luminosity", "size": 123}, {"text": "based", "size": 119}, {"text": "redshifts", "size": 118}, {"text": "=", "size": 110}, {"text": "density", "size": 108}, {"text": "national", "size": 105}, {"text": "function", "size": 101}, {"text": "find", "size": 101}, {"text": "large", "size": 100}], "Carretta, E.": [{"text": "stars", "size": 229}, {"text": "ngc", "size": 123}, {"text": "abundances", "size": 104}, {"text": "cluster", "size": 89}, {"text": "clusters", "size": 71}, {"text": "globular", "size": 51}, {"text": "red", "size": 50}, {"text": "gcs", "size": 48}, {"text": "spectra", "size": 47}, {"text": "na", "size": 46}, {"text": "abundance", "size": 45}, {"text": "different", "size": 44}, {"text": "based", "size": 43}, {"text": "hb", "size": 41}, {"text": "elements", "size": 40}, {"text": "o", "size": 39}, {"text": "two", "size": 38}, {"text": "metallicity", "size": 37}, {"text": "found", "size": 35}, {"text": "eso", "size": 35}], "Wood-Vasey, W. M.": [{"text": "ia", "size": 54}, {"text": "sne", "size": 42}, {"text": "spectra", "size": 37}, {"text": "sn", "size": 22}, {"text": "supernova", "size": 20}, {"text": "data", "size": 19}, {"text": "supernovae", "size": 18}, {"text": "present", "size": 17}, {"text": "w", "size": 16}, {"text": "based", "size": 16}, {"text": "observations", "size": 14}, {"text": "redshifts", "size": 14}, {"text": "observatory", "size": 14}, {"text": "type", "size": 13}, {"text": "telescope", "size": 13}, {"text": "obtained", "size": 13}, {"text": "light", "size": 13}, {"text": "essence", "size": 13}, {"text": "part", "size": 12}, {"text": "high-redshift", "size": 12}], "Moni Bidin, C.": [{"text": "stars", "size": 91}, {"text": "clusters", "size": 59}, {"text": "cluster", "size": 43}, {"text": "observations", "size": 37}, {"text": "vvv", "size": 36}, {"text": "results", "size": 31}, {"text": "ngc", "size": 30}, {"text": "galactic", "size": 28}, {"text": "new", "size": 25}, {"text": "=", "size": 24}, {"text": "stellar", "size": 24}, {"text": "ehb", "size": 23}, {"text": "disk", "size": 21}, {"text": "survey", "size": 21}, {"text": "based", "size": 20}, {"text": "eso", "size": 20}, {"text": "1", "size": 20}, {"text": "star", "size": 20}, {"text": "parameters", "size": 19}, {"text": "among", "size": 19}], "Vanzella, E.": [{"text": "galaxies", "size": 133}, {"text": "redshift", "size": 112}, {"text": "z", "size": 75}, {"text": "galaxy", "size": 43}, {"text": "mass", "size": 41}, {"text": "deep", "size": 37}, {"text": "stellar", "size": 37}, {"text": "observations", "size": 36}, {"text": "field", "size": 35}, {"text": "redshifts", "size": 34}, {"text": "spectroscopic", "size": 34}, {"text": "data", "size": 33}, {"text": "emission", "size": 31}, {"text": "two", "size": 31}, {"text": "ly\\u00ee\\u00b1", "size": 30}, {"text": "sample", "size": 29}, {"text": "luminosity", "size": 29}, {"text": "observed", "size": 29}, {"text": "~", "size": 28}, {"text": "density", "size": 27}], "Cowley, C. R.": [{"text": "stars", "size": 53}, {"text": "magnetic", "size": 43}, {"text": "lines", "size": 42}, {"text": "hd", "size": 32}, {"text": "observations", "size": 28}, {"text": "star", "size": 26}, {"text": "spectra", "size": 25}, {"text": "ii", "size": 24}, {"text": "field", "size": 23}, {"text": "elements", "size": 22}, {"text": "obtained", "size": 20}, {"text": "herbig", "size": 19}, {"text": "spectral", "size": 19}, {"text": "based", "size": 17}, {"text": "eso", "size": 16}, {"text": "abundance", "size": 16}, {"text": "show", "size": 15}, {"text": "southern", "size": 13}, {"text": "present", "size": 13}, {"text": "rotation", "size": 13}], "Lilly, S. J.": [{"text": "galaxies", "size": 234}, {"text": "z", "size": 103}, {"text": "redshift", "size": 99}, {"text": "mass", "size": 77}, {"text": "large", "size": 72}, {"text": "telescope", "size": 70}, {"text": "galaxy", "size": 68}, {"text": "&#60;", "size": 68}, {"text": "observatory", "size": 66}, {"text": "evolution", "size": 63}, {"text": "based", "size": 60}, {"text": "national", "size": 59}, {"text": "sample", "size": 58}, {"text": "survey", "size": 56}, {"text": "1", "size": 55}, {"text": "operated", "size": 48}, {"text": "groups", "size": 45}, {"text": "cosmos", "size": 44}, {"text": "zcosmos", "size": 44}, {"text": "stellar", "size": 41}], "Gehrels, N.": [{"text": "grb", "size": 68}, {"text": "x-ray", "size": 48}, {"text": "burst", "size": 34}, {"text": "afterglow", "size": 31}, {"text": "optical", "size": 30}, {"text": "observations", "size": 29}, {"text": "galaxy", "size": 26}, {"text": "grbs", "size": 23}, {"text": "host", "size": 22}, {"text": "spectral", "size": 21}, {"text": "sources", "size": 20}, {"text": "redshift", "size": 19}, {"text": "emission", "size": 18}, {"text": "swift", "size": 17}, {"text": "z", "size": 17}, {"text": "after", "size": 17}, {"text": "\\u00ee\\u00b3-ray", "size": 17}, {"text": "bursts", "size": 16}, {"text": "spectrum", "size": 16}, {"text": "energy", "size": 16}]}}'
p5
sS'top_by_citationsperpaper'
p6
S'[["Astier, P.", 1611.0], ["Kowalski, M.", 784.0], ["Wood-Vasey, W. M.", 646.0], ["Clowe, Douglas", 551.0], ["Eisenhauer, F.", 413.0], ["Daddi, E.", 392.0], ["Lilly, S. J.", 336.0], ["Gehrels, N.", 315.0], ["Beaulieu, J.-P.", 309.0], ["Paumard, T.", 305.0]]'
p7
sS'top_by_citationcount'
p8
S'[["Astier, P.", 1611.0], ["Carretta, E.", 1150.0], ["Ilbert, O.", 1131.0], ["Kowalski, M.", 784.0], ["Daddi, E.", 784.0], ["F\\u00c3\\u00b6rster Schreiber, N. M.", 712.0], ["Vanzella, E.", 707.0], ["Wood-Vasey, W. M.", 646.0], ["Hubrig, S.", 622.0], ["Gillessen, S.", 621.0]]'
p9
sS'top_by_papercount'
p10
S'[["Hubrig, S.", 29], ["Carretta, E.", 21], ["Mignani, R. P.", 18], ["Reiners, A.", 17], ["Kervella, P.", 15], ["Sana, H.", 13], ["Geier, S.", 13], ["Kochukhov, O.", 12], ["Moni Bidin, C.", 12], ["Cowley, C. R.", 12]]'
p11
sS'relationships_by_citationsperpaper'
p12
S'{"Eisenhauer, F.": {"Paumard, T.": [5.0], "Kowalski, M.": [], "Astier, P.": [], "Wood-Vasey, W. M.": [], "Clowe, Douglas": [], "Beaulieu, J.-P.": [], "Lilly, S. J.": [], "Daddi, E.": [], "Gehrels, N.": []}, "Paumard, T.": {"Eisenhauer, F.": [8.0], "Kowalski, M.": [], "Astier, P.": [], "Wood-Vasey, W. M.": [], "Clowe, Douglas": [], "Beaulieu, J.-P.": [], "Lilly, S. J.": [], "Daddi, E.": [], "Gehrels, N.": []}, "Kowalski, M.": {"Eisenhauer, F.": [], "Paumard, T.": [], "Astier, P.": [], "Wood-Vasey, W. M.": [69.0], "Clowe, Douglas": [], "Beaulieu, J.-P.": [], "Lilly, S. J.": [], "Daddi, E.": [], "Gehrels, N.": []}, "Astier, P.": {"Eisenhauer, F.": [], "Paumard, T.": [], "Kowalski, M.": [], "Wood-Vasey, W. M.": [], "Clowe, Douglas": [], "Beaulieu, J.-P.": [], "Lilly, S. J.": [], "Daddi, E.": [], "Gehrels, N.": []}, "Wood-Vasey, W. M.": {"Eisenhauer, F.": [], "Paumard, T.": [], "Kowalski, M.": [], "Astier, P.": [], "Clowe, Douglas": [], "Beaulieu, J.-P.": [], "Lilly, S. J.": [], "Daddi, E.": [], "Gehrels, N.": []}, "Clowe, Douglas": {"Eisenhauer, F.": [], "Paumard, T.": [], "Kowalski, M.": [], "Astier, P.": [], "Wood-Vasey, W. M.": [], "Beaulieu, J.-P.": [], "Lilly, S. J.": [], "Daddi, E.": [], "Gehrels, N.": []}, "Beaulieu, J.-P.": {"Eisenhauer, F.": [], "Paumard, T.": [], "Kowalski, M.": [], "Astier, P.": [], "Wood-Vasey, W. M.": [], "Clowe, Douglas": [], "Lilly, S. J.": [], "Daddi, E.": [], "Gehrels, N.": []}, "Lilly, S. J.": {"Eisenhauer, F.": [], "Kowalski, M.": [], "Astier, P.": [], "Wood-Vasey, W. M.": [], "Clowe, Douglas": [], "Beaulieu, J.-P.": [], "Paumard, T.": [], "Daddi, E.": [24.0], "Gehrels, N.": []}, "Daddi, E.": {"Eisenhauer, F.": [], "Paumard, T.": [], "Kowalski, M.": [], "Astier, P.": [], "Wood-Vasey, W. M.": [], "Clowe, Douglas": [], "Lilly, S. J.": [], "Beaulieu, J.-P.": [], "Gehrels, N.": []}, "Gehrels, N.": {"Eisenhauer, F.": [], "Paumard, T.": [], "Kowalski, M.": [], "Astier, P.": [], "Wood-Vasey, W. M.": [], "Clowe, Douglas": [], "Beaulieu, J.-P.": [], "Lilly, S. J.": [], "Daddi, E.": []}}'
p13
sS'relationships_by_papercount'
p14
S'{"Kochukhov, O.": {"Geier, S.": [], "Hubrig, S.": [], "Carretta, E.": [], "Reiners, A.": [], "Moni Bidin, C.": [], "Mignani, R. P.": [], "Cowley, C. R.": [], "Sana, H.": [], "Kervella, P.": []}, "Geier, S.": {"Kochukhov, O.": [], "Hubrig, S.": [], "Carretta, E.": [], "Reiners, A.": [], "Moni Bidin, C.": [], "Mignani, R. P.": [], "Cowley, C. R.": [], "Sana, H.": [], "Kervella, P.": []}, "Hubrig, S.": {"Kochukhov, O.": [], "Geier, S.": [], "Carretta, E.": [], "Reiners, A.": [], "Moni Bidin, C.": [], "Mignani, R. P.": [], "Cowley, C. R.": [6.0, 5.0, 6.0, 4.0, 8.0], "Sana, H.": [], "Kervella, P.": []}, "Carretta, E.": {"Kochukhov, O.": [], "Geier, S.": [], "Hubrig, S.": [], "Reiners, A.": [], "Moni Bidin, C.": [], "Mignani, R. P.": [], "Cowley, C. R.": [], "Sana, H.": [], "Kervella, P.": []}, "Reiners, A.": {"Geier, S.": [], "Hubrig, S.": [], "Carretta, E.": [], "Kochukhov, O.": [7.0], "Moni Bidin, C.": [], "Mignani, R. P.": [], "Cowley, C. R.": [], "Sana, H.": [], "Kervella, P.": []}, "Moni Bidin, C.": {"Kochukhov, O.": [], "Geier, S.": [], "Hubrig, S.": [], "Carretta, E.": [], "Reiners, A.": [], "Mignani, R. P.": [], "Cowley, C. R.": [], "Sana, H.": [], "Kervella, P.": []}, "Mignani, R. P.": {"Kochukhov, O.": [], "Geier, S.": [], "Hubrig, S.": [], "Carretta, E.": [], "Reiners, A.": [], "Moni Bidin, C.": [], "Cowley, C. R.": [], "Sana, H.": [], "Kervella, P.": []}, "Cowley, C. R.": {"Kochukhov, O.": [], "Geier, S.": [], "Hubrig, S.": [2.0, 2.0, 2.0, 2.0, 2.0, 2.0, 2.0, 2.0, 2.0, 2.0, 2.0], "Carretta, E.": [], "Reiners, A.": [], "Moni Bidin, C.": [], "Mignani, R. P.": [], "Sana, H.": [], "Kervella, P.": []}, "Sana, H.": {"Kochukhov, O.": [], "Geier, S.": [], "Hubrig, S.": [], "Carretta, E.": [], "Reiners, A.": [], "Moni Bidin, C.": [], "Mignani, R. P.": [], "Cowley, C. R.": [], "Kervella, P.": []}, "Kervella, P.": {"Kochukhov, O.": [], "Geier, S.": [], "Hubrig, S.": [], "Carretta, E.": [], "Reiners, A.": [], "Moni Bidin, C.": [], "Mignani, R. P.": [], "Cowley, C. R.": [], "Sana, H.": []}}'
p15
s.